target datalayout = "e-m:e-p270:32:32-p271:32:32-p272:64:64-i64:64-i128:128-f80:128-n8:16:32:64-S128"
target triple = "x86_64-pc-linux-gnu"

%struct.lxb_encoding_single_index_t = type { [4 x i8], i32, i32 }
%struct.lxb_encoding_decode_t = type { ptr, ptr, i64, i64, ptr, i64, i32, i32, i8, i8, i32, %union.anon }
%union.anon = type { %struct.lxb_encoding_ctx_2022_jp_t }
%struct.lxb_encoding_ctx_2022_jp_t = type { i8, i8, i32, i32, i8 }

@lxb_encoding_single_index_iso_8859_5 = external constant [128 x %struct.lxb_encoding_single_index_t], align 16

; Function Attrs: nounwind uwtable
define hidden i32 @lxb_encoding_decode_iso_8859_5(ptr noundef %0, ptr noundef %1, ptr noundef %2) #0 {
  %4 = alloca i32, align 4
  %5 = alloca ptr, align 8
  %6 = alloca ptr, align 8
  %7 = alloca ptr, align 8
  %8 = alloca ptr, align 8
  %9 = alloca i32, align 4
  store ptr %0, ptr %5, align 8, !tbaa !4
  store ptr %1, ptr %6, align 8, !tbaa !8
  store ptr %2, ptr %7, align 8, !tbaa !10
  br label %10

10:                                               ; preds = %3
  call void @llvm.lifetime.start.p0(i64 8, ptr %8) #5
  %11 = load ptr, ptr %6, align 8, !tbaa !8
  %12 = load ptr, ptr %11, align 8, !tbaa !10
  store ptr %12, ptr %8, align 8, !tbaa !10
  br label %13

13:                                               ; preds = %141, %114, %10
  %14 = load ptr, ptr %8, align 8, !tbaa !10
  %15 = load ptr, ptr %7, align 8, !tbaa !10
  %16 = icmp ult ptr %14, %15
  br i1 %16, label %17, label %144

17:                                               ; preds = %13
  %18 = load ptr, ptr %8, align 8, !tbaa !10
  %19 = load i8, ptr %18, align 1, !tbaa !27
  %20 = zext i8 %19 to i32
  %21 = icmp slt i32 %20, 128
  br i1 %21, label %22, label %49

22:                                               ; preds = %17
  br label %23

23:                                               ; preds = %22
  %24 = load ptr, ptr %5, align 8, !tbaa !4
  %25 = getelementptr inbounds nuw %struct.lxb_encoding_decode_t, ptr %24, i32 0, i32 3
  %26 = load i64, ptr %25, align 8, !tbaa !23
  %27 = load ptr, ptr %5, align 8, !tbaa !4
  %28 = getelementptr inbounds nuw %struct.lxb_encoding_decode_t, ptr %27, i32 0, i32 2
  %29 = load i64, ptr %28, align 8, !tbaa !25
  %30 = icmp uge i64 %26, %29
  br i1 %30, label %31, label %34

31:                                               ; preds = %23
  %32 = load ptr, ptr %8, align 8, !tbaa !10
  %33 = load ptr, ptr %6, align 8, !tbaa !8
  store ptr %32, ptr %33, align 8, !tbaa !10
  store i32 15, ptr %4, align 4
  store i32 1, ptr %9, align 4
  br label %145

34:                                               ; preds = %23
  %35 = load ptr, ptr %8, align 8, !tbaa !10
  %36 = getelementptr inbounds nuw i8, ptr %35, i32 1
  store ptr %36, ptr %8, align 8, !tbaa !10
  %37 = load i8, ptr %35, align 1, !tbaa !27
  %38 = zext i8 %37 to i32
  %39 = load ptr, ptr %5, align 8, !tbaa !4
  %40 = getelementptr inbounds nuw %struct.lxb_encoding_decode_t, ptr %39, i32 0, i32 1
  %41 = load ptr, ptr %40, align 8, !tbaa !26
  %42 = load ptr, ptr %5, align 8, !tbaa !4
  %43 = getelementptr inbounds nuw %struct.lxb_encoding_decode_t, ptr %42, i32 0, i32 3
  %44 = load i64, ptr %43, align 8, !tbaa !23
  %45 = add i64 %44, 1
  store i64 %45, ptr %43, align 8, !tbaa !23
  %46 = getelementptr inbounds nuw i32, ptr %41, i64 %44
  store i32 %38, ptr %46, align 4, !tbaa !28
  br label %47

47:                                               ; preds = %34
  br label %48

48:                                               ; preds = %47
  br label %141

49:                                               ; preds = %17
  %50 = load ptr, ptr %8, align 8, !tbaa !10
  %51 = getelementptr inbounds nuw i8, ptr %50, i32 1
  store ptr %51, ptr %8, align 8, !tbaa !10
  %52 = load i8, ptr %50, align 1, !tbaa !27
  %53 = zext i8 %52 to i32
  %54 = sub nsw i32 %53, 128
  %55 = sext i32 %54 to i64
  %56 = getelementptr inbounds [128 x %struct.lxb_encoding_single_index_t], ptr @lxb_encoding_single_index_iso_8859_5, i64 0, i64 %55
  %57 = getelementptr inbounds nuw %struct.lxb_encoding_single_index_t, ptr %56, i32 0, i32 2
  %58 = load i32, ptr %57, align 4, !tbaa !31
  %59 = load ptr, ptr %5, align 8, !tbaa !4
  %60 = getelementptr inbounds nuw %struct.lxb_encoding_decode_t, ptr %59, i32 0, i32 6
  store i32 %58, ptr %60, align 8, !tbaa !29
  %61 = load ptr, ptr %5, align 8, !tbaa !4
  %62 = getelementptr inbounds nuw %struct.lxb_encoding_decode_t, ptr %61, i32 0, i32 6
  %63 = load i32, ptr %62, align 8, !tbaa !29
  %64 = icmp eq i32 %63, 2097151
  br i1 %64, label %65, label %115

65:                                               ; preds = %49
  br label %66

66:                                               ; preds = %65
  %67 = load ptr, ptr %5, align 8, !tbaa !4
  %68 = getelementptr inbounds nuw %struct.lxb_encoding_decode_t, ptr %67, i32 0, i32 4
  %69 = load ptr, ptr %68, align 8, !tbaa !22
  %70 = icmp eq ptr %69, null
  br i1 %70, label %71, label %72

71:                                               ; preds = %66
  store i32 1, ptr %4, align 4
  store i32 1, ptr %9, align 4
  br label %145

72:                                               ; preds = %66
  %73 = load ptr, ptr %5, align 8, !tbaa !4
  %74 = getelementptr inbounds nuw %struct.lxb_encoding_decode_t, ptr %73, i32 0, i32 3
  %75 = load i64, ptr %74, align 8, !tbaa !23
  %76 = load ptr, ptr %5, align 8, !tbaa !4
  %77 = getelementptr inbounds nuw %struct.lxb_encoding_decode_t, ptr %76, i32 0, i32 5
  %78 = load i64, ptr %77, align 8, !tbaa !24
  %79 = add i64 %75, %78
  %80 = load ptr, ptr %5, align 8, !tbaa !4
  %81 = getelementptr inbounds nuw %struct.lxb_encoding_decode_t, ptr %80, i32 0, i32 2
  %82 = load i64, ptr %81, align 8, !tbaa !25
  %83 = icmp ugt i64 %79, %82
  br i1 %83, label %84, label %91

84:                                               ; preds = %72
  br label %85

85:                                               ; preds = %84
  %86 = load ptr, ptr %8, align 8, !tbaa !10
  %87 = getelementptr inbounds i8, ptr %86, i64 -1
  %88 = load ptr, ptr %6, align 8, !tbaa !8
  store ptr %87, ptr %88, align 8, !tbaa !10
  br label %89

89:                                               ; preds = %85
  br label %90

90:                                               ; preds = %89
  store i32 15, ptr %4, align 4
  store i32 1, ptr %9, align 4
  br label %145

91:                                               ; preds = %72
  %92 = load ptr, ptr %5, align 8, !tbaa !4
  %93 = getelementptr inbounds nuw %struct.lxb_encoding_decode_t, ptr %92, i32 0, i32 1
  %94 = load ptr, ptr %93, align 8, !tbaa !26
  %95 = load ptr, ptr %5, align 8, !tbaa !4
  %96 = getelementptr inbounds nuw %struct.lxb_encoding_decode_t, ptr %95, i32 0, i32 3
  %97 = load i64, ptr %96, align 8, !tbaa !23
  %98 = getelementptr inbounds nuw i32, ptr %94, i64 %97
  %99 = load ptr, ptr %5, align 8, !tbaa !4
  %100 = getelementptr inbounds nuw %struct.lxb_encoding_decode_t, ptr %99, i32 0, i32 4
  %101 = load ptr, ptr %100, align 8, !tbaa !22
  %102 = load ptr, ptr %5, align 8, !tbaa !4
  %103 = getelementptr inbounds nuw %struct.lxb_encoding_decode_t, ptr %102, i32 0, i32 5
  %104 = load i64, ptr %103, align 8, !tbaa !24
  %105 = mul i64 4, %104
  call void @llvm.memcpy.p0.p0.i64(ptr align 4 %98, ptr align 4 %101, i64 %105, i1 false)
  %106 = load ptr, ptr %5, align 8, !tbaa !4
  %107 = getelementptr inbounds nuw %struct.lxb_encoding_decode_t, ptr %106, i32 0, i32 5
  %108 = load i64, ptr %107, align 8, !tbaa !24
  %109 = load ptr, ptr %5, align 8, !tbaa !4
  %110 = getelementptr inbounds nuw %struct.lxb_encoding_decode_t, ptr %109, i32 0, i32 3
  %111 = load i64, ptr %110, align 8, !tbaa !23
  %112 = add i64 %111, %108
  store i64 %112, ptr %110, align 8, !tbaa !23
  br label %113

113:                                              ; preds = %91
  br label %114

114:                                              ; preds = %113
  br label %13

115:                                              ; preds = %49
  br label %116

116:                                              ; preds = %115
  %117 = load ptr, ptr %5, align 8, !tbaa !4
  %118 = getelementptr inbounds nuw %struct.lxb_encoding_decode_t, ptr %117, i32 0, i32 3
  %119 = load i64, ptr %118, align 8, !tbaa !23
  %120 = load ptr, ptr %5, align 8, !tbaa !4
  %121 = getelementptr inbounds nuw %struct.lxb_encoding_decode_t, ptr %120, i32 0, i32 2
  %122 = load i64, ptr %121, align 8, !tbaa !25
  %123 = icmp uge i64 %119, %122
  br i1 %123, label %124, label %127

124:                                              ; preds = %116
  %125 = load ptr, ptr %8, align 8, !tbaa !10
  %126 = load ptr, ptr %6, align 8, !tbaa !8
  store ptr %125, ptr %126, align 8, !tbaa !10
  store i32 15, ptr %4, align 4
  store i32 1, ptr %9, align 4
  br label %145

127:                                              ; preds = %116
  %128 = load ptr, ptr %5, align 8, !tbaa !4
  %129 = getelementptr inbounds nuw %struct.lxb_encoding_decode_t, ptr %128, i32 0, i32 6
  %130 = load i32, ptr %129, align 8, !tbaa !29
  %131 = load ptr, ptr %5, align 8, !tbaa !4
  %132 = getelementptr inbounds nuw %struct.lxb_encoding_decode_t, ptr %131, i32 0, i32 1
  %133 = load ptr, ptr %132, align 8, !tbaa !26
  %134 = load ptr, ptr %5, align 8, !tbaa !4
  %135 = getelementptr inbounds nuw %struct.lxb_encoding_decode_t, ptr %134, i32 0, i32 3
  %136 = load i64, ptr %135, align 8, !tbaa !23
  %137 = add i64 %136, 1
  store i64 %137, ptr %135, align 8, !tbaa !23
  %138 = getelementptr inbounds nuw i32, ptr %133, i64 %136
  store i32 %130, ptr %138, align 4, !tbaa !28
  br label %139

139:                                              ; preds = %127
  br label %140

140:                                              ; preds = %139
  br label %141

141:                                              ; preds = %140, %48
  %142 = load ptr, ptr %8, align 8, !tbaa !10
  %143 = load ptr, ptr %6, align 8, !tbaa !8
  store ptr %142, ptr %143, align 8, !tbaa !10
  br label %13

144:                                              ; preds = %13
  store i32 0, ptr %9, align 4
  br label %145

145:                                              ; preds = %144, %124, %90, %71, %31
  call void @llvm.lifetime.end.p0(i64 8, ptr %8) #5
  %146 = load i32, ptr %9, align 4
  switch i32 %146, label %151 [
    i32 0, label %147
    i32 1, label %149
  ]

147:                                              ; preds = %145
  br label %148

148:                                              ; preds = %147
  store i32 0, ptr %4, align 4
  br label %149

149:                                              ; preds = %148, %145
  %150 = load i32, ptr %4, align 4
  ret i32 %150

151:                                              ; preds = %145
  unreachable
}